; ModuleID = '61/222.c'
source_filename = "61/222.c"
target datalayout = "e-m:e-p270:32:32-p271:32:32-p272:64:64-i64:64-f80:128-n8:16:32:64-S128"
target triple = "x86_64-pc-linux-gnu"

@.str = private unnamed_addr constant [4 x i8] c"%d\0A\00", align 1

; Function Attrs: noinline nounwind uwtable
define dso_local void @main() #0 {
  %1 = alloca i32, align 4
  %2 = alloca i32, align 4
  %3 = alloca i32, align 4
  %4 = alloca [10 x [21 x i32]], align 16
  %5 = call i32 (i8*, ...) @__isoc99_scanf(i8* getelementptr inbounds ([4 x i8], [4 x i8]* @.str, i64 0, i64 0), i32* %1)
  store i32 0, i32* %2, align 4
  br label %6

6:                                                ; preds = %17, %0
  %7 = load i32, i32* %2, align 4
  %8 = load i32, i32* %1, align 4
  %9 = icmp slt i32 %7, %8
  br i1 %9, label %10, label %20

10:                                               ; preds = %6
  %11 = getelementptr inbounds [10 x [21 x i32]], [10 x [21 x i32]]* %4, i64 0, i64 0
  %12 = load i32, i32* %2, align 4
  %13 = sext i32 %12 to i64
  %14 = getelementptr inbounds [21 x i32], [21 x i32]* %11, i64 %13
  %15 = getelementptr inbounds [21 x i32], [21 x i32]* %14, i64 0, i64 0
  %16 = call i32 (i8*, ...) @__isoc99_scanf(i8* getelementptr inbounds ([4 x i8], [4 x i8]* @.str, i64 0, i64 0), i32* %15)
  br label %17

17:                                               ; preds = %10
  %18 = load i32, i32* %2, align 4
  %19 = add nsw i32 %18, 1
  store i32 %19, i32* %2, align 4
  br label %6

20:                                               ; preds = %6
  store i32 0, i32* %2, align 4
  br label %21

21:                                               ; preds = %92, %20
  %22 = load i32, i32* %2, align 4
  %23 = load i32, i32* %1, align 4
  %24 = icmp slt i32 %22, %23
  br i1 %24, label %25, label %95

25:                                               ; preds = %21
  %26 = getelementptr inbounds [10 x [21 x i32]], [10 x [21 x i32]]* %4, i64 0, i64 0
  %27 = load i32, i32* %2, align 4
  %28 = sext i32 %27 to i64
  %29 = getelementptr inbounds [21 x i32], [21 x i32]* %26, i64 %28
  %30 = getelementptr inbounds [21 x i32], [21 x i32]* %29, i64 0, i64 0
  %31 = getelementptr inbounds i32, i32* %30, i64 2
  store i32 1, i32* %31, align 4
  %32 = getelementptr inbounds [10 x [21 x i32]], [10 x [21 x i32]]* %4, i64 0, i64 0
  %33 = load i32, i32* %2, align 4
  %34 = sext i32 %33 to i64
  %35 = getelementptr inbounds [21 x i32], [21 x i32]* %32, i64 %34
  %36 = getelementptr inbounds [21 x i32], [21 x i32]* %35, i64 0, i64 0
  %37 = getelementptr inbounds i32, i32* %36, i64 1
  store i32 1, i32* %37, align 4
  store i32 3, i32* %3, align 4
  br label %38

38:                                               ; preds = %77, %25
  %39 = load i32, i32* %3, align 4
  %40 = getelementptr inbounds [10 x [21 x i32]], [10 x [21 x i32]]* %4, i64 0, i64 0
  %41 = load i32, i32* %2, align 4
  %42 = sext i32 %41 to i64
  %43 = getelementptr inbounds [21 x i32], [21 x i32]* %40, i64 %42
  %44 = getelementptr inbounds [21 x i32], [21 x i32]* %43, i64 0, i64 0
  %45 = load i32, i32* %44, align 4
  %46 = icmp sle i32 %39, %45
  br i1 %46, label %47, label %80

47:                                               ; preds = %38
  %48 = getelementptr inbounds [10 x [21 x i32]], [10 x [21 x i32]]* %4, i64 0, i64 0
  %49 = load i32, i32* %2, align 4
  %50 = sext i32 %49 to i64
  %51 = getelementptr inbounds [21 x i32], [21 x i32]* %48, i64 %50
  %52 = getelementptr inbounds [21 x i32], [21 x i32]* %51, i64 0, i64 0
  %53 = load i32, i32* %3, align 4
  %54 = sext i32 %53 to i64
  %55 = getelementptr inbounds i32, i32* %52, i64 %54
  %56 = getelementptr inbounds i32, i32* %55, i64 -1
  %57 = load i32, i32* %56, align 4
  %58 = getelementptr inbounds [10 x [21 x i32]], [10 x [21 x i32]]* %4, i64 0, i64 0
  %59 = load i32, i32* %2, align 4
  %60 = sext i32 %59 to i64
  %61 = getelementptr inbounds [21 x i32], [21 x i32]* %58, i64 %60
  %62 = getelementptr inbounds [21 x i32], [21 x i32]* %61, i64 0, i64 0
  %63 = load i32, i32* %3, align 4
  %64 = sext i32 %63 to i64
  %65 = getelementptr inbounds i32, i32* %62, i64 %64
  %66 = getelementptr inbounds i32, i32* %65, i64 -2
  %67 = load i32, i32* %66, align 4
  %68 = add nsw i32 %57, %67
  %69 = getelementptr inbounds [10 x [21 x i32]], [10 x [21 x i32]]* %4, i64 0, i64 0
  %70 = load i32, i32* %2, align 4
  %71 = sext i32 %70 to i64
  %72 = getelementptr inbounds [21 x i32], [21 x i32]* %69, i64 %71
  %73 = getelementptr inbounds [21 x i32], [21 x i32]* %72, i64 0, i64 0
  %74 = load i32, i32* %3, align 4
  %75 = sext i32 %74 to i64
  %76 = getelementptr inbounds i32, i32* %73, i64 %75
  store i32 %68, i32* %76, align 4
  br label %77

77:                                               ; preds = %47
  %78 = load i32, i32* %3, align 4
  %79 = add nsw i32 %78, 1
  store i32 %79, i32* %3, align 4
  br label %38

80:                                               ; preds = %38
  %81 = getelementptr inbounds [10 x [21 x i32]], [10 x [21 x i32]]* %4, i64 0, i64 0
  %82 = load i32, i32* %2, align 4
  %83 = sext i32 %82 to i64
  %84 = getelementptr inbounds [21 x i32], [21 x i32]* %81, i64 %83
  %85 = getelementptr inbounds [21 x i32], [21 x i32]* %84, i64 0, i64 0
  %86 = load i32, i32* %3, align 4
  %87 = add nsw i32 %86, -1
  store i32 %87, i32* %3, align 4
  %88 = sext i32 %87 to i64
  %89 = getelementptr inbounds i32, i32* %85, i64 %88
  %90 = load i32, i32* %89, align 4
  %91 = call i32 (i8*, ...) @printf(i8* getelementptr inbounds ([4 x i8], [4 x i8]* @.str, i64 0, i64 0), i32 %90)
  br label %92

92:                                               ; preds = %80
  %93 = load i32, i32* %2, align 4
  %94 = add nsw i32 %93, 1
  store i32 %94, i32* %2, align 4
  br label %21

95:                                               ; preds = %21
  ret void
}

declare dso_local i32 @__isoc99_scanf(i8*, ...) #1

declare dso_local i32 @printf(i8*, ...) #1


!llvm.module.flags = !{!0}
!llvm.ident = !{!1}

!0 = !{i32 1, !"wchar_size", i32 4}
!1 = !{!"clang version 10.0.0-4ubuntu1 "}
